; ModuleID = 'source-C-CXX/43/1160.c'
source_filename = "source-C-CXX/43/1160.c"
target datalayout = "e-m:e-p270:32:32-p271:32:32-p272:64:64-i64:64-f80:128-n8:16:32:64-S128"
target triple = "x86_64-pc-linux-gnu"

@.str.2 = private unnamed_addr constant [3 x i8] c"-0\00", align 1
@.str.6 = private unnamed_addr constant [3 x i8] c"%s\00", align 1
@str.7 = private unnamed_addr constant [2 x i8] c"0\00", align 1

; Function Attrs: nofree nounwind sspstrong uwtable
define dso_local void @reverse(i8* nocapture readonly %0) local_unnamed_addr #0 {
  %2 = tail call i32 @strcmp(i8* noundef nonnull dereferenceable(1) %0, i8* noundef nonnull dereferenceable(2) getelementptr inbounds ([2 x i8], [2 x i8]* @str.7, i64 0, i64 0)) #5
  %3 = icmp eq i32 %2, 0
  br i1 %3, label %4, label %6

4:                                                ; preds = %1
  %5 = tail call i32 @puts(i8* nonnull dereferenceable(1) getelementptr inbounds ([2 x i8], [2 x i8]* @str.7, i64 0, i64 0))
  br label %43

6:                                                ; preds = %1
  %7 = tail call i32 @strcmp(i8* noundef nonnull dereferenceable(1) %0, i8* noundef nonnull dereferenceable(3) getelementptr inbounds ([3 x i8], [3 x i8]* @.str.2, i64 0, i64 0)) #5
  %8 = icmp eq i32 %7, 0
  br i1 %8, label %9, label %11

9:                                                ; preds = %6
  %10 = tail call i32 @puts(i8* nonnull dereferenceable(1) getelementptr inbounds ([2 x i8], [2 x i8]* @str.7, i64 0, i64 0))
  br label %43

11:                                               ; preds = %6
  %12 = load i8, i8* %0, align 1, !tbaa !5
  %13 = icmp eq i8 %12, 45
  br i1 %13, label %14, label %16

14:                                               ; preds = %11
  %15 = tail call i32 @putchar(i32 45)
  br label %16

16:                                               ; preds = %14, %11
  %17 = phi i64 [ -1, %14 ], [ 0, %11 ]
  %18 = tail call i64 @strlen(i8* noundef nonnull %0) #5
  %19 = sub nsw i64 0, %17
  %20 = icmp eq i64 %18, %19
  br i1 %20, label %41, label %21

21:                                               ; preds = %16, %35
  %22 = phi i64 [ %37, %35 ], [ 0, %16 ]
  %23 = phi i64 [ %38, %35 ], [ %18, %16 ]
  %24 = phi i32 [ %36, %35 ], [ 0, %16 ]
  %25 = xor i64 %22, -1
  %26 = add i64 %23, %25
  %27 = getelementptr inbounds i8, i8* %0, i64 %26
  %28 = load i8, i8* %27, align 1, !tbaa !5
  %29 = icmp eq i8 %28, 48
  %30 = icmp eq i32 %24, 0
  %31 = and i1 %30, %29
  br i1 %31, label %35, label %32

32:                                               ; preds = %21
  %33 = sext i8 %28 to i32
  %34 = tail call i32 @putchar(i32 %33)
  br label %35

35:                                               ; preds = %21, %32
  %36 = phi i32 [ 0, %21 ], [ 1, %32 ]
  %37 = add nuw i64 %22, 1
  %38 = tail call i64 @strlen(i8* noundef nonnull %0) #5
  %39 = add i64 %38, %17
  %40 = icmp ugt i64 %39, %37
  br i1 %40, label %21, label %41, !llvm.loop !8

41:                                               ; preds = %35, %16
  %42 = tail call i32 @putchar(i32 10)
  br label %43

43:                                               ; preds = %41, %9, %4
  ret void
}

; Function Attrs: argmemonly mustprogress nofree nosync nounwind willreturn
declare void @llvm.lifetime.start.p0i8(i64 immarg, i8* nocapture) #1

; Function Attrs: argmemonly mustprogress nofree nounwind readonly willreturn
declare i32 @strcmp(i8* nocapture, i8* nocapture) local_unnamed_addr #2

; Function Attrs: argmemonly mustprogress nofree nounwind readonly willreturn
declare i64 @strlen(i8* nocapture) local_unnamed_addr #2

; Function Attrs: argmemonly mustprogress nofree nosync nounwind willreturn
declare void @llvm.lifetime.end.p0i8(i64 immarg, i8* nocapture) #1

; Function Attrs: nofree nounwind sspstrong uwtable
define dso_local i32 @main() local_unnamed_addr #0 {
  %1 = alloca [10 x i8], align 1
  %2 = getelementptr inbounds [10 x i8], [10 x i8]* %1, i64 0, i64 0
  call void @llvm.lifetime.start.p0i8(i64 10, i8* nonnull %2) #6
  %3 = call i32 (i8*, ...) @__isoc99_scanf(i8* getelementptr inbounds ([3 x i8], [3 x i8]* @.str.6, i64 0, i64 0), i8* nonnull %2)
  call void @reverse(i8* nonnull %2)
  %4 = call i32 (i8*, ...) @__isoc99_scanf(i8* getelementptr inbounds ([3 x i8], [3 x i8]* @.str.6, i64 0, i64 0), i8* nonnull %2)
  call void @reverse(i8* nonnull %2)
  %5 = call i32 (i8*, ...) @__isoc99_scanf(i8* getelementptr inbounds ([3 x i8], [3 x i8]* @.str.6, i64 0, i64 0), i8* nonnull %2)
  call void @reverse(i8* nonnull %2)
  %6 = call i32 (i8*, ...) @__isoc99_scanf(i8* getelementptr inbounds ([3 x i8], [3 x i8]* @.str.6, i64 0, i64 0), i8* nonnull %2)
  call void @reverse(i8* nonnull %2)
  %7 = call i32 (i8*, ...) @__isoc99_scanf(i8* getelementptr inbounds ([3 x i8], [3 x i8]* @.str.6, i64 0, i64 0), i8* nonnull %2)
  call void @reverse(i8* nonnull %2)
  %8 = call i32 (i8*, ...) @__isoc99_scanf(i8* getelementptr inbounds ([3 x i8], [3 x i8]* @.str.6, i64 0, i64 0), i8* nonnull %2)
  call void @reverse(i8* nonnull %2)
  call void @llvm.lifetime.end.p0i8(i64 10, i8* nonnull %2) #6
  ret i32 0
}

; Function Attrs: nofree nounwind
declare noundef i32 @__isoc99_scanf(i8* nocapture noundef readonly, ...) local_unnamed_addr #3

; Function Attrs: nofree nounwind
declare noundef i32 @putchar(i32 noundef) local_unnamed_addr #4

; Function Attrs: nofree nounwind
declare noundef i32 @puts(i8* nocapture noundef readonly) local_unnamed_addr #4


!llvm.module.flags = !{!0, !1, !2, !3}
!llvm.ident = !{!4}

!0 = !{i32 1, !"wchar_size", i32 4}
!1 = !{i32 7, !"PIC Level", i32 2}
!2 = !{i32 7, !"PIE Level", i32 2}
!3 = !{i32 7, !"uwtable", i32 1}
!4 = !{!"clang version 13.0.0"}
!5 = !{!6, !6, i64 0}
!6 = !{!"omnipotent char", !7, i64 0}
!7 = !{!"Simple C/C++ TBAA"}
!8 = distinct !{!8, !9}
!9 = !{!"llvm.loop.mustprogress"}
